target datalayout = "e-m:e-p270:32:32-p271:32:32-p272:64:64-i64:64-i128:128-f80:128-n8:16:32:64-S128"
target triple = "x86_64-pc-linux-gnu"

%class.btVector3 = type { [4 x float] }
%class.btConeTwistConstraint = type { %class.btTypedConstraint, [3 x %class.btJacobianEntry], %class.btTransform, %class.btTransform, float, float, float, float, float, float, float, float, %class.btVector3, %class.btVector3, float, float, float, float, float, float, float, float, i8, i8, i8, i8, float, float, %class.btVector3, i8, i8, %class.btQuaternion, float, %class.btVector3, i32, float, float, float }
%class.btTypedConstraint = type { ptr, %struct.btTypedObject, i32, %union.anon.0, float, i8, i8, i32, ptr, ptr, float, float, ptr }
%struct.btTypedObject = type { i32 }
%union.anon.0 = type { ptr }
%class.btJacobianEntry = type { %class.btVector3, %class.btVector3, %class.btVector3, %class.btVector3, %class.btVector3, float }
%class.btTransform = type { %class.btMatrix3x3, %class.btVector3 }
%class.btMatrix3x3 = type { [3 x %class.btVector3] }
%class.btQuaternion = type { %class.btQuadWord }
%class.btQuadWord = type { [4 x float] }

; Function Attrs: mustprogress nounwind uwtable
define dso_local noundef float @_ZNK21btConeTwistConstraint8getParamEii(ptr noundef nonnull align 8 dereferenceable(632) %0, i32 noundef %1, i32 noundef %2) unnamed_addr #1 align 2 {
  %4 = alloca ptr, align 8
  %5 = alloca i32, align 4
  %6 = alloca i32, align 4
  %7 = alloca float, align 4
  store ptr %0, ptr %4, align 8, !tbaa !12
  store i32 %1, ptr %5, align 4, !tbaa !9
  store i32 %2, ptr %6, align 4, !tbaa !9
  %8 = load ptr, ptr %4, align 8
  call void @llvm.lifetime.start.p0(i64 4, ptr %7) #13
  store float 0.000000e+00, ptr %7, align 4, !tbaa !50
  %9 = load i32, ptr %5, align 4, !tbaa !9
  switch i32 %9, label %52 [
    i32 1, label %10
    i32 2, label %10
    i32 3, label %31
    i32 4, label %31
  ]

10:                                               ; preds = %3, %3
  %11 = load i32, ptr %6, align 4, !tbaa !9
  %12 = icmp sge i32 %11, 0
  br i1 %12, label %13, label %19

13:                                               ; preds = %10
  %14 = load i32, ptr %6, align 4, !tbaa !9
  %15 = icmp slt i32 %14, 3
  br i1 %15, label %16, label %19

16:                                               ; preds = %13
  %17 = getelementptr inbounds nuw %class.btConeTwistConstraint, ptr %8, i32 0, i32 36
  %18 = load float, ptr %17, align 8, !tbaa !48
  store float %18, ptr %7, align 4, !tbaa !50
  br label %30

19:                                               ; preds = %13, %10
  %20 = load i32, ptr %6, align 4, !tbaa !9
  %21 = icmp sge i32 %20, 3
  br i1 %21, label %22, label %28

22:                                               ; preds = %19
  %23 = load i32, ptr %6, align 4, !tbaa !9
  %24 = icmp slt i32 %23, 6
  br i1 %24, label %25, label %28

25:                                               ; preds = %22
  %26 = getelementptr inbounds nuw %class.btConeTwistConstraint, ptr %8, i32 0, i32 5
  %27 = load float, ptr %26, align 8, !tbaa !57
  store float %27, ptr %7, align 4, !tbaa !50
  br label %29

28:                                               ; preds = %22, %19
  br label %29

29:                                               ; preds = %28, %25
  br label %30

30:                                               ; preds = %29, %16
  br label %53

31:                                               ; preds = %3, %3
  %32 = load i32, ptr %6, align 4, !tbaa !9
  %33 = icmp sge i32 %32, 0
  br i1 %33, label %34, label %40

34:                                               ; preds = %31
  %35 = load i32, ptr %6, align 4, !tbaa !9
  %36 = icmp slt i32 %35, 3
  br i1 %36, label %37, label %40

37:                                               ; preds = %34
  %38 = getelementptr inbounds nuw %class.btConeTwistConstraint, ptr %8, i32 0, i32 35
  %39 = load float, ptr %38, align 4, !tbaa !47
  store float %39, ptr %7, align 4, !tbaa !50
  br label %51

40:                                               ; preds = %34, %31
  %41 = load i32, ptr %6, align 4, !tbaa !9
  %42 = icmp sge i32 %41, 3
  br i1 %42, label %43, label %49

43:                                               ; preds = %40
  %44 = load i32, ptr %6, align 4, !tbaa !9
  %45 = icmp slt i32 %44, 6
  br i1 %45, label %46, label %49

46:                                               ; preds = %43
  %47 = getelementptr inbounds nuw %class.btConeTwistConstraint, ptr %8, i32 0, i32 37
  %48 = load float, ptr %47, align 4, !tbaa !49
  store float %48, ptr %7, align 4, !tbaa !50
  br label %50

49:                                               ; preds = %43, %40
  br label %50

50:                                               ; preds = %49, %46
  br label %51

51:                                               ; preds = %50, %37
  br label %53

52:                                               ; preds = %3
  br label %53

53:                                               ; preds = %52, %51, %30
  %54 = load float, ptr %7, align 4, !tbaa !50
  call void @llvm.lifetime.end.p0(i64 4, ptr %7) #13
  ret float %54
}