; Function Attrs: mustprogress nofree norecurse nosync nounwind willreturn memory(argmem: read) uwtable
define dso_local noundef float @_ZNK21btConeTwistConstraint8getParamEii(ptr noundef nonnull readonly align 8 captures(none) dereferenceable(632) %0, i32 noundef %1, i32 noundef %2) unnamed_addr #12 align 2 {
  switch i32 %1, label %22 [
    i32 1, label %4
    i32 2, label %4
    i32 3, label %13
    i32 4, label %13
  ]

4:                                                ; preds = %3, %3
  %or.cond = icmp ult i32 %2, 3
  br i1 %or.cond, label %5, label %8

5:                                                ; preds = %4
  %6 = getelementptr inbounds nuw i8, ptr %0, i64 624
  %7 = load float, ptr %6, align 8, !tbaa !36
  br label %22

8:                                                ; preds = %4
  %9 = add i32 %2, -3
  %or.cond3 = icmp ult i32 %9, 3
  br i1 %or.cond3, label %10, label %22

10:                                               ; preds = %8
  %11 = getelementptr inbounds nuw i8, ptr %0, i64 456
  %12 = load float, ptr %11, align 8, !tbaa !30
  br label %22

13:                                               ; preds = %3, %3
  %or.cond5 = icmp ult i32 %2, 3
  br i1 %or.cond5, label %14, label %17

14:                                               ; preds = %13
  %15 = getelementptr inbounds nuw i8, ptr %0, i64 620
  %16 = load float, ptr %15, align 4, !tbaa !35
  br label %22

17:                                               ; preds = %13
  %18 = add i32 %2, -3
  %or.cond7 = icmp ult i32 %18, 3
  br i1 %or.cond7, label %19, label %22

19:                                               ; preds = %17
  %20 = getelementptr inbounds nuw i8, ptr %0, i64 628
  %21 = load float, ptr %20, align 4, !tbaa !37
  br label %22

22:                                               ; preds = %3, %14, %17, %19, %5, %8, %10
  %.0 = phi float [ 0.000000e+00, %3 ], [ %16, %14 ], [ %21, %19 ], [ 0.000000e+00, %17 ], [ %7, %5 ], [ %12, %10 ], [ 0.000000e+00, %8 ]
  ret float %.0
}